(lp1
(lp2
(lp3
I1
aI0
aI1
aI0
aI1
aI0
aI1
aI0
aa(lp4
I1
aI0
aI1
aI0
aI1
aI0
aI1
aI0
aa(lp5
I1
aI0
aI1
aI0
aI1
aI0
aI1
aI0
aa(lp6
I1
aI0
aI1
aI0
aI1
aI0
aI1
aI0
aa(lp7
I1
aI0
aI1
aI0
aI1
aI0
aI1
aI0
aa(lp8
I1
aI0
aI1
aI0
aI1
aI0
aI1
aI0
aa(lp9
I1
aI0
aI1
aI0
aI1
aI0
aI1
aI0
aa(lp10
I1
aI0
aI1
aI0
aI1
aI0
aI1
aI0
aaa(lp11
(lp12
I0
aI0
aI0
aI0
aI0
aI0
aI0
aI0
aa(lp13
I0
aI0
aI0
aI0
aI0
aI0
aI0
aI0
aa(lp14
I1
aI1
aI1
aI1
aI1
aI1
aI1
aI1
aa(lp15
I1
aI1
aI1
aI1
aI1
aI1
aI1
aI1
aa(lp16
I1
aI1
aI1
aI1
aI1
aI1
aI1
aI1
aa(lp17
I1
aI1
aI1
aI1
aI1
aI1
aI1
aI1
aa(lp18
I0
aI0
aI0
aI0
aI0
aI0
aI0
aI0
aa(lp19
I0
aI0
aI0
aI0
aI0
aI0
aI0
aI0
aaa(lp20
(lp21
I1
aI0
aI1
aI0
aI1
aI0
aI1
aI0
aa(lp22
I1
aI0
aI0
aI0
aI0
aI0
aI1
aI0
aa(lp23
I1
aI0
aI0
aI0
aI0
aI0
aI1
aI0
aa(lp24
I1
aI0
aI0
aI0
aI0
aI0
aI1
aI0
aa(lp25
I1
aI0
aI0
aI0
aI0
aI0
aI1
aI0
aa(lp26
I1
aI0
aI0
aI0
aI0
aI0
aI1
aI0
aa(lp27
I1
aI0
aI0
aI0
aI0
aI0
aI1
aI0
aa(lp28
I1
aI0
aI1
aI0
aI1
aI0
aI1
aI0
aaa(lp29
(lp30
I1
aI0
aI1
aI0
aI1
aI0
aI1
aI0
aa(lp31
I1
aI0
aI0
aI0
aI0
aI0
aI1
aI0
aa(lp32
I1
aI0
aI0
aI0
aI0
aI0
aI1
aI0
aa(lp33
I1
aI0
aI0
aI0
aI0
aI0
aI1
aI0
aa(lp34
I1
aI0
aI0
aI0
aI0
aI0
aI1
aI0
aa(lp35
I1
aI0
aI0
aI0
aI0
aI0
aI1
aI0
aa(lp36
I1
aI0
aI0
aI0
aI0
aI0
aI1
aI0
aa(lp37
I1
aI0
aI1
aI0
aI1
aI0
aI1
aI0
aaa(lp38
(lp39
I1
aI0
aI1
aI0
aI1
aI0
aI1
aI0
aa(lp40
I1
aI0
aI0
aI0
aI0
aI0
aI1
aI0
aa(lp41
I1
aI0
aI0
aI0
aI0
aI0
aI1
aI0
aa(lp42
I1
aI0
aI0
aI0
aI0
aI0
aI1
aI0
aa(lp43
I1
aI0
aI0
aI0
aI0
aI0
aI1
aI0
aa(lp44
I1
aI0
aI0
aI0
aI0
aI0
aI1
aI0
aa(lp45
I1
aI0
aI0
aI0
aI0
aI0
aI1
aI0
aa(lp46
I1
aI0
aI1
aI0
aI1
aI0
aI1
aI0
aaa(lp47
(lp48
I0
aI0
aI0
aI0
aI0
aI0
aI0
aI0
aa(lp49
I0
aI0
aI0
aI0
aI0
aI0
aI0
aI0
aa(lp50
I0
aI0
aI0
aI0
aI0
aI0
aI0
aI0
aa(lp51
I0
aI0
aI0
aI0
aI0
aI0
aI0
aI0
aa(lp52
I0
aI0
aI0
aI0
aI0
aI0
aI0
aI0
aa(lp53
I0
aI0
aI0
aI0
aI0
aI0
aI0
aI0
aa(lp54
I1
aI0
aI0
aI0
aI0
aI0
aI0
aI0
aa(lp55
I1
aI0
aI1
aI0
aI1
aI0
aI1
aI0
aaa(lp56
(lp57
I1
aI0
aI1
aI0
aI1
aI0
aI1
aI0
aa(lp58
I1
aI0
aI0
aI0
aI0
aI0
aI1
aI0
aa(lp59
I1
aI0
aI0
aI0
aI0
aI0
aI1
aI0
aa(lp60
I1
aI0
aI0
aI0
aI0
aI0
aI1
aI0
aa(lp61
I1
aI0
aI0
aI0
aI0
aI0
aI1
aI0
aa(lp62
I1
aI0
aI0
aI0
aI0
aI0
aI1
aI0
aa(lp63
I1
aI0
aI0
aI0
aI0
aI0
aI1
aI0
aa(lp64
I1
aI0
aI1
aI0
aI1
aI0
aI1
aI0
aaa(lp65
(lp66
I1
aI0
aI1
aI0
aI1
aI0
aI1
aI0
aa(lp67
I1
aI0
aI0
aI0
aI0
aI0
aI1
aI0
aa(lp68
I1
aI0
aI0
aI0
aI0
aI0
aI1
aI0
aa(lp69
I1
aI0
aI0
aI0
aI0
aI0
aI1
aI0
aa(lp70
I1
aI0
aI0
aI0
aI0
aI0
aI1
aI0
aa(lp71
I1
aI0
aI0
aI0
aI0
aI0
aI1
aI0
aa(lp72
I1
aI0
aI0
aI0
aI0
aI0
aI1
aI0
aa(lp73
I1
aI0
aI1
aI0
aI1
aI0
aI1
aI0
aaa(lp74
(lp75
I0
aI0
aI0
aI0
aI0
aI0
aI0
aI0
aa(lp76
I0
aI0
aI0
aI0
aI1
aI0
aI0
aI0
aa(lp77
I0
aI0
aI1
aI0
aI0
aI0
aI0
aI0
aa(lp78
I1
aI0
aI0
aI1
aI0
aI1
aI0
aI1
aa(lp79
I0
aI0
aI1
aI0
aI0
aI0
aI0
aI0
aa(lp80
I0
aI0
aI0
aI0
aI1
aI0
aI0
aI0
aa(lp81
I0
aI0
aI0
aI0
aI0
aI0
aI0
aI0
aa(lp82
I0
aI0
aI0
aI0
aI0
aI0
aI0
aI0
aaa(lp83
(lp84
I0
aI0
aI0
aI0
aI0
aI0
aI0
aI0
aa(lp85
I0
aI0
aI0
aI1
aI0
aI0
aI0
aI0
aa(lp86
I0
aI0
aI0
aI0
aI0
aI1
aI0
aI0
aa(lp87
I1
aI0
aI1
aI0
aI1
aI0
aI0
aI1
aa(lp88
I0
aI0
aI0
aI0
aI0
aI1
aI0
aI0
aa(lp89
I0
aI0
aI0
aI1
aI0
aI0
aI0
aI0
aa(lp90
I0
aI0
aI0
aI0
aI0
aI0
aI0
aI0
aa(lp91
I0
aI0
aI0
aI0
aI0
aI0
aI0
aI0
aaa(lp92
(lp93
I0
aI0
aI0
aI1
aI0
aI0
aI0
aI0
aa(lp94
I0
aI0
aI0
aI1
aI0
aI0
aI0
aI0
aa(lp95
I0
aI0
aI0
aI1
aI0
aI0
aI0
aI0
aa(lp96
I0
aI0
aI0
aI1
aI0
aI0
aI0
aI0
aa(lp97
I0
aI0
aI0
aI1
aI0
aI0
aI0
aI0
aa(lp98
I0
aI1
aI0
aI1
aI0
aI1
aI0
aI0
aa(lp99
I0
aI0
aI0
aI1
aI0
aI0
aI0
aI0
aa(lp100
I0
aI0
aI0
aI0
aI0
aI0
aI0
aI0
aaa(lp101
(lp102
I1
aI0
aI1
aI0
aI1
aI0
aI1
aI0
aa(lp103
I1
aI0
aI0
aI0
aI0
aI0
aI1
aI0
aa(lp104
I1
aI0
aI0
aI0
aI0
aI0
aI1
aI0
aa(lp105
I1
aI0
aI0
aI0
aI0
aI0
aI1
aI0
aa(lp106
I1
aI0
aI0
aI0
aI0
aI0
aI1
aI0
aa(lp107
I1
aI0
aI0
aI0
aI0
aI0
aI1
aI0
aa(lp108
I1
aI0
aI0
aI0
aI0
aI0
aI1
aI0
aa(lp109
I1
aI0
aI1
aI0
aI1
aI0
aI1
aI0
aaa(lp110
(lp111
I1
aI0
aI1
aI0
aI1
aI0
aI1
aI0
aa(lp112
I1
aI0
aI0
aI0
aI0
aI0
aI1
aI0
aa(lp113
I1
aI0
aI0
aI0
aI0
aI0
aI1
aI0
aa(lp114
I1
aI0
aI0
aI0
aI0
aI0
aI1
aI0
aa(lp115
I1
aI0
aI0
aI0
aI0
aI0
aI1
aI0
aa(lp116
I1
aI0
aI0
aI0
aI0
aI0
aI1
aI0
aa(lp117
I1
aI0
aI0
aI0
aI0
aI0
aI1
aI0
aa(lp118
I1
aI0
aI1
aI0
aI1
aI0
aI1
aI0
aaa(lp119
(lp120
I0
aI0
aI0
aI0
aI0
aI0
aI1
aI0
aa(lp121
I0
aI0
aI0
aI0
aI0
aI0
aI1
aI0
aa(lp122
I0
aI0
aI0
aI0
aI0
aI0
aI1
aI0
aa(lp123
I0
aI0
aI0
aI0
aI0
aI0
aI1
aI0
aa(lp124
I0
aI0
aI1
aI0
aI0
aI0
aI1
aI0
aa(lp125
I1
aI0
aI0
aI1
aI0
aI1
aI0
aI0
aa(lp126
I0
aI0
aI1
aI0
aI0
aI0
aI0
aI0
aa(lp127
I0
aI0
aI0
aI0
aI0
aI0
aI0
aI0
aaa(lp128
(lp129
I1
aI0
aI1
aI0
aI1
aI0
aI1
aI0
aa(lp130
I1
aI0
aI0
aI0
aI0
aI0
aI1
aI0
aa(lp131
I1
aI0
aI0
aI0
aI0
aI0
aI1
aI0
aa(lp132
I1
aI0
aI0
aI0
aI0
aI0
aI1
aI0
aa(lp133
I1
aI0
aI0
aI0
aI0
aI0
aI1
aI0
aa(lp134
I1
aI0
aI0
aI0
aI0
aI0
aI1
aI0
aa(lp135
I1
aI0
aI0
aI0
aI0
aI0
aI1
aI0
aa(lp136
I1
aI0
aI1
aI0
aI1
aI0
aI1
aI0
aaa(lp137
(lp138
I1
aI0
aI1
aI0
aI1
aI0
aI1
aI0
aa(lp139
I1
aI0
aI0
aI0
aI0
aI0
aI1
aI0
aa(lp140
I1
aI0
aI0
aI0
aI0
aI0
aI1
aI0
aa(lp141
I1
aI0
aI0
aI0
aI0
aI0
aI1
aI0
aa(lp142
I1
aI0
aI0
aI0
aI0
aI0
aI1
aI0
aa(lp143
I1
aI0
aI0
aI0
aI0
aI0
aI1
aI0
aa(lp144
I1
aI0
aI0
aI0
aI0
aI0
aI1
aI0
aa(lp145
I1
aI0
aI1
aI0
aI1
aI0
aI1
aI0
aaa(lp146
(lp147
I1
aI0
aI1
aI0
aI1
aI0
aI1
aI0
aa(lp148
I1
aI0
aI0
aI0
aI0
aI0
aI1
aI0
aa(lp149
I1
aI0
aI0
aI0
aI0
aI0
aI1
aI0
aa(lp150
I1
aI0
aI0
aI0
aI0
aI0
aI1
aI0
aa(lp151
I1
aI0
aI0
aI0
aI0
aI0
aI1
aI0
aa(lp152
I1
aI0
aI0
aI0
aI0
aI0
aI1
aI0
aa(lp153
I1
aI0
aI0
aI0
aI0
aI0
aI1
aI0
aa(lp154
I1
aI0
aI1
aI0
aI1
aI0
aI1
aI0
aaa(lp155
(lp156
I1
aI0
aI1
aI0
aI1
aI0
aI1
aI0
aa(lp157
I1
aI0
aI0
aI0
aI0
aI0
aI1
aI0
aa(lp158
I1
aI0
aI0
aI0
aI0
aI0
aI1
aI0
aa(lp159
I1
aI0
aI0
aI0
aI0
aI0
aI1
aI0
aa(lp160
I1
aI0
aI0
aI0
aI0
aI0
aI1
aI0
aa(lp161
I1
aI0
aI0
aI0
aI0
aI0
aI1
aI0
aa(lp162
I1
aI0
aI0
aI0
aI0
aI0
aI1
aI0
aa(lp163
I1
aI0
aI1
aI0
aI1
aI0
aI1
aI0
aaa(lp164
(lp165
I1
aI0
aI1
aI0
aI1
aI0
aI1
aI0
aa(lp166
I1
aI0
aI0
aI0
aI0
aI0
aI1
aI0
aa(lp167
I1
aI0
aI0
aI0
aI0
aI0
aI1
aI0
aa(lp168
I1
aI0
aI0
aI0
aI0
aI0
aI1
aI0
aa(lp169
I1
aI0
aI0
aI0
aI0
aI0
aI1
aI0
aa(lp170
I1
aI0
aI0
aI0
aI0
aI0
aI1
aI0
aa(lp171
I1
aI0
aI0
aI0
aI0
aI0
aI1
aI0
aa(lp172
I1
aI0
aI1
aI0
aI1
aI0
aI1
aI0
aaa(lp173
(lp174
I1
aI0
aI1
aI0
aI1
aI0
aI1
aI0
aa(lp175
I1
aI0
aI0
aI0
aI0
aI0
aI1
aI0
aa(lp176
I1
aI0
aI0
aI0
aI0
aI0
aI1
aI0
aa(lp177
I1
aI0
aI0
aI0
aI0
aI0
aI1
aI0
aa(lp178
I1
aI0
aI0
aI0
aI0
aI0
aI1
aI0
aa(lp179
I1
aI0
aI0
aI0
aI0
aI0
aI1
aI0
aa(lp180
I1
aI0
aI0
aI0
aI0
aI0
aI1
aI0
aa(lp181
I1
aI0
aI1
aI0
aI1
aI0
aI1
aI0
aaa(lp182
(lp183
I1
aI0
aI1
aI0
aI1
aI0
aI1
aI0
aa(lp184
I1
aI0
aI0
aI0
aI0
aI0
aI1
aI0
aa(lp185
I1
aI0
aI0
aI0
aI0
aI0
aI1
aI0
aa(lp186
I1
aI0
aI0
aI0
aI0
aI0
aI1
aI0
aa(lp187
I1
aI0
aI0
aI0
aI0
aI0
aI1
aI0
aa(lp188
I1
aI0
aI0
aI0
aI0
aI0
aI1
aI0
aa(lp189
I1
aI0
aI0
aI0
aI0
aI0
aI1
aI0
aa(lp190
I1
aI0
aI1
aI0
aI1
aI0
aI1
aI0
aaa(lp191
(lp192
I1
aI0
aI1
aI0
aI1
aI0
aI1
aI0
aa(lp193
I1
aI0
aI0
aI0
aI0
aI0
aI1
aI0
aa(lp194
I1
aI0
aI0
aI0
aI0
aI0
aI1
aI0
aa(lp195
I1
aI0
aI0
aI0
aI0
aI0
aI1
aI0
aa(lp196
I1
aI0
aI0
aI0
aI0
aI0
aI1
aI0
aa(lp197
I1
aI0
aI0
aI0
aI0
aI0
aI1
aI0
aa(lp198
I1
aI0
aI0
aI0
aI0
aI0
aI1
aI0
aa(lp199
I1
aI0
aI1
aI0
aI1
aI0
aI1
aI0
aaa(lp200
(lp201
I1
aI0
aI1
aI0
aI1
aI0
aI1
aI0
aa(lp202
I1
aI0
aI0
aI0
aI0
aI0
aI1
aI0
aa(lp203
I1
aI0
aI0
aI0
aI0
aI0
aI1
aI0
aa(lp204
I1
aI0
aI0
aI0
aI0
aI0
aI1
aI0
aa(lp205
I1
aI0
aI0
aI0
aI0
aI0
aI1
aI0
aa(lp206
I1
aI0
aI0
aI0
aI0
aI0
aI1
aI0
aa(lp207
I1
aI0
aI0
aI0
aI0
aI0
aI1
aI0
aa(lp208
I1
aI0
aI1
aI0
aI1
aI0
aI1
aI0
aaa(lp209
(lp210
I1
aI0
aI1
aI0
aI1
aI0
aI1
aI0
aa(lp211
I1
aI0
aI0
aI0
aI0
aI0
aI1
aI0
aa(lp212
I1
aI0
aI0
aI0
aI0
aI0
aI1
aI0
aa(lp213
I1
aI0
aI0
aI0
aI0
aI0
aI1
aI0
aa(lp214
I1
aI0
aI0
aI0
aI0
aI0
aI1
aI0
aa(lp215
I1
aI0
aI0
aI0
aI0
aI0
aI1
aI0
aa(lp216
I1
aI0
aI0
aI0
aI0
aI0
aI1
aI0
aa(lp217
I1
aI0
aI1
aI0
aI1
aI0
aI1
aI0
aaa(lp218
(lp219
I1
aI0
aI1
aI0
aI1
aI0
aI1
aI0
aa(lp220
I1
aI0
aI0
aI0
aI0
aI0
aI1
aI0
aa(lp221
I1
aI0
aI0
aI0
aI0
aI0
aI1
aI0
aa(lp222
I1
aI0
aI0
aI0
aI0
aI0
aI1
aI0
aa(lp223
I1
aI0
aI0
aI0
aI0
aI0
aI1
aI0
aa(lp224
I1
aI0
aI0
aI0
aI0
aI0
aI1
aI0
aa(lp225
I1
aI0
aI0
aI0
aI0
aI0
aI1
aI0
aa(lp226
I1
aI0
aI1
aI0
aI1
aI0
aI1
aI0
aaa(lp227
(lp228
I1
aI0
aI1
aI0
aI1
aI0
aI1
aI0
aa(lp229
I1
aI0
aI0
aI0
aI0
aI0
aI1
aI0
aa(lp230
I1
aI0
aI0
aI0
aI0
aI0
aI1
aI0
aa(lp231
I1
aI0
aI0
aI0
aI0
aI0
aI1
aI0
aa(lp232
I1
aI0
aI0
aI0
aI0
aI0
aI1
aI0
aa(lp233
I1
aI0
aI0
aI0
aI0
aI0
aI1
aI0
aa(lp234
I1
aI0
aI0
aI0
aI0
aI0
aI1
aI0
aa(lp235
I1
aI0
aI1
aI0
aI1
aI0
aI1
aI0
aaa(lp236
(lp237
I1
aI0
aI1
aI0
aI1
aI0
aI1
aI0
aa(lp238
I1
aI0
aI0
aI0
aI0
aI0
aI1
aI0
aa(lp239
I1
aI0
aI0
aI0
aI0
aI0
aI1
aI0
aa(lp240
I1
aI0
aI0
aI0
aI0
aI0
aI1
aI0
aa(lp241
I1
aI0
aI0
aI0
aI0
aI0
aI1
aI0
aa(lp242
I1
aI0
aI0
aI0
aI0
aI0
aI1
aI0
aa(lp243
I1
aI0
aI0
aI0
aI0
aI0
aI1
aI0
aa(lp244
I1
aI0
aI1
aI0
aI1
aI0
aI1
aI0
aaa(lp245
(lp246
I0
aI0
aI0
aI0
aI0
aI0
aI0
aI0
aa(lp247
I0
aI0
aI0
aI0
aI0
aI0
aI0
aI0
aa(lp248
I0
aI0
aI1
aI0
aI0
aI0
aI0
aI0
aa(lp249
I1
aI0
aI0
aI1
aI0
aI1
aI0
aI1
aa(lp250
I0
aI0
aI1
aI0
aI0
aI0
aI0
aI0
aa(lp251
I0
aI0
aI0
aI0
aI0
aI0
aI0
aI0
aa(lp252
I0
aI0
aI0
aI0
aI0
aI0
aI0
aI0
aa(lp253
I0
aI0
aI0
aI0
aI0
aI0
aI0
aI0
aaa(lp254
(lp255
I1
aI0
aI1
aI0
aI1
aI0
aI1
aI0
aa(lp256
I1
aI0
aI0
aI0
aI0
aI0
aI1
aI0
aa(lp257
I1
aI0
aI0
aI0
aI0
aI0
aI1
aI0
aa(lp258
I1
aI0
aI0
aI0
aI0
aI0
aI1
aI0
aa(lp259
I1
aI0
aI0
aI0
aI0
aI0
aI1
aI0
aa(lp260
I1
aI0
aI0
aI0
aI0
aI0
aI1
aI0
aa(lp261
I1
aI0
aI0
aI0
aI0
aI0
aI1
aI0
aa(lp262
I1
aI0
aI1
aI0
aI1
aI0
aI1
aI0
aaa(lp263
(lp264
I1
aI0
aI1
aI0
aI1
aI0
aI1
aI0
aa(lp265
I1
aI0
aI0
aI0
aI0
aI0
aI1
aI0
aa(lp266
I1
aI0
aI0
aI0
aI0
aI0
aI1
aI0
aa(lp267
I1
aI0
aI0
aI0
aI0
aI0
aI1
aI0
aa(lp268
I1
aI0
aI0
aI0
aI0
aI0
aI1
aI0
aa(lp269
I1
aI0
aI0
aI0
aI0
aI0
aI1
aI0
aa(lp270
I1
aI0
aI0
aI0
aI0
aI0
aI1
aI0
aa(lp271
I1
aI0
aI1
aI0
aI1
aI0
aI1
aI0
aaa(lp272
(lp273
I1
aI0
aI1
aI0
aI1
aI0
aI1
aI0
aa(lp274
I1
aI0
aI0
aI0
aI0
aI0
aI1
aI0
aa(lp275
I1
aI0
aI0
aI0
aI0
aI0
aI1
aI0
aa(lp276
I1
aI0
aI0
aI0
aI0
aI0
aI1
aI0
aa(lp277
I1
aI0
aI0
aI0
aI0
aI0
aI1
aI0
aa(lp278
I1
aI0
aI0
aI0
aI0
aI0
aI1
aI0
aa(lp279
I1
aI0
aI0
aI0
aI0
aI0
aI1
aI0
aa(lp280
I1
aI0
aI1
aI0
aI1
aI0
aI1
aI0
aaa(lp281
(lp282
I1
aI0
aI1
aI0
aI1
aI0
aI1
aI0
aa(lp283
I1
aI0
aI0
aI0
aI0
aI0
aI1
aI0
aa(lp284
I1
aI0
aI0
aI0
aI0
aI0
aI1
aI0
aa(lp285
I1
aI0
aI0
aI0
aI0
aI0
aI1
aI0
aa(lp286
I1
aI0
aI0
aI0
aI0
aI0
aI1
aI0
aa(lp287
I1
aI0
aI0
aI0
aI0
aI0
aI1
aI0
aa(lp288
I1
aI0
aI0
aI0
aI0
aI0
aI1
aI0
aa(lp289
I1
aI0
aI1
aI0
aI1
aI0
aI1
aI0
aaa(lp290
(lp291
I0
aI0
aI0
aI0
aI0
aI0
aI0
aI0
aa(lp292
I0
aI0
aI0
aI0
aI0
aI0
aI0
aI0
aa(lp293
I0
aI0
aI0
aI0
aI0
aI0
aI0
aI0
aa(lp294
I0
aI0
aI0
aI0
aI0
aI0
aI0
aI0
aa(lp295
I0
aI0
aI0
aI0
aI0
aI0
aI0
aI0
aa(lp296
I0
aI0
aI0
aI0
aI0
aI0
aI0
aI0
aa(lp297
I0
aI0
aI0
aI0
aI0
aI0
aI0
aI0
aa(lp298
I0
aI0
aI0
aI0
aI0
aI0
aI0
aI0
aaa(lp299
(lp300
I0
aI0
aI0
aI1
aI0
aI0
aI0
aI0
aa(lp301
I0
aI0
aI0
aI1
aI0
aI0
aI0
aI0
aa(lp302
I0
aI0
aI0
aI1
aI0
aI0
aI0
aI0
aa(lp303
I0
aI0
aI0
aI1
aI0
aI0
aI0
aI0
aa(lp304
I0
aI0
aI0
aI1
aI0
aI0
aI0
aI0
aa(lp305
I0
aI0
aI0
aI0
aI0
aI0
aI0
aI0
aa(lp306
I0
aI0
aI0
aI1
aI0
aI0
aI0
aI0
aa(lp307
I0
aI0
aI0
aI0
aI0
aI0
aI0
aI0
aaa(lp308
(lp309
I0
aI0
aI1
aI0
aI0
aI1
aI0
aI0
aa(lp310
I0
aI0
aI1
aI0
aI0
aI1
aI0
aI0
aa(lp311
I0
aI0
aI1
aI0
aI0
aI1
aI0
aI0
aa(lp312
I0
aI0
aI0
aI0
aI0
aI0
aI0
aI0
aa(lp313
I0
aI0
aI0
aI0
aI0
aI0
aI0
aI0
aa(lp314
I0
aI0
aI0
aI0
aI0
aI0
aI0
aI0
aa(lp315
I0
aI0
aI0
aI0
aI0
aI0
aI0
aI0
aa(lp316
I0
aI0
aI0
aI0
aI0
aI0
aI0
aI0
aaa(lp317
(lp318
I0
aI1
aI0
aI0
aI0
aI1
aI0
aI0
aa(lp319
I0
aI1
aI0
aI0
aI0
aI1
aI0
aI0
aa(lp320
I1
aI0
aI1
aI0
aI1
aI0
aI1
aI0
aa(lp321
I0
aI1
aI0
aI0
aI0
aI1
aI0
aI0
aa(lp322
I1
aI0
aI1
aI0
aI1
aI0
aI1
aI0
aa(lp323
I0
aI1
aI0
aI0
aI0
aI1
aI0
aI0
aa(lp324
I0
aI1
aI0
aI0
aI0
aI1
aI0
aI0
aa(lp325
I0
aI0
aI0
aI0
aI0
aI0
aI0
aI0
aaa(lp326
(lp327
I0
aI0
aI0
aI1
aI0
aI0
aI0
aI0
aa(lp328
I0
aI1
aI0
aI1
aI0
aI1
aI0
aI0
aa(lp329
I1
aI0
aI0
aI1
aI0
aI0
aI0
aI0
aa(lp330
I0
aI1
aI0
aI1
aI0
aI1
aI0
aI0
aa(lp331
I0
aI0
aI0
aI1
aI0
aI0
aI1
aI0
aa(lp332
I0
aI1
aI0
aI1
aI0
aI1
aI0
aI0
aa(lp333
I0
aI0
aI0
aI1
aI0
aI0
aI0
aI0
aa(lp334
I0
aI0
aI0
aI0
aI0
aI0
aI0
aI0
aaa(lp335
(lp336
I1
aI0
aI1
aI0
aI0
aI0
aI1
aI0
aa(lp337
I1
aI0
aI1
aI0
aI0
aI1
aI0
aI0
aa(lp338
I0
aI0
aI0
aI0
aI1
aI0
aI0
aI0
aa(lp339
I0
aI0
aI0
aI1
aI0
aI0
aI0
aI0
aa(lp340
I0
aI0
aI1
aI0
aI0
aI0
aI0
aI0
aa(lp341
I0
aI1
aI0
aI0
aI1
aI0
aI1
aI0
aa(lp342
I1
aI0
aI0
aI0
aI1
aI0
aI1
aI0
aa(lp343
I0
aI0
aI0
aI0
aI0
aI0
aI0
aI0
aaa(lp344
(lp345
I0
aI0
aI1
aI1
aI0
aI0
aI0
aI0
aa(lp346
I0
aI1
aI0
aI0
aI1
aI0
aI0
aI0
aa(lp347
I0
aI0
aI1
aI1
aI0
aI0
aI0
aI0
aa(lp348
I0
aI1
aI0
aI0
aI1
aI0
aI1
aI0
aa(lp349
I1
aI0
aI0
aI0
aI0
aI1
aI0
aI0
aa(lp350
I1
aI0
aI0
aI0
aI1
aI0
aI1
aI0
aa(lp351
I0
aI1
aI0
aI1
aI0
aI0
aI0
aI1
aa(lp352
I0
aI0
aI0
aI0
aI0
aI0
aI0
aI0
aaa(lp353
(lp354
I0
aI0
aI0
aI1
aI0
aI0
aI0
aI0
aa(lp355
I0
aI0
aI0
aI1
aI0
aI0
aI0
aI0
aa(lp356
I0
aI0
aI0
aI1
aI0
aI0
aI0
aI0
aa(lp357
I0
aI0
aI0
aI0
aI0
aI0
aI0
aI0
aa(lp358
I0
aI0
aI0
aI0
aI0
aI0
aI0
aI0
aa(lp359
I0
aI0
aI0
aI0
aI0
aI0
aI0
aI0
aa(lp360
I0
aI0
aI0
aI0
aI0
aI0
aI0
aI0
aa(lp361
I0
aI0
aI0
aI0
aI0
aI0
aI0
aI0
aaa(lp362
(lp363
I0
aI0
aI0
aI0
aI1
aI0
aI0
aI0
aa(lp364
I0
aI0
aI0
aI1
aI0
aI0
aI0
aI0
aa(lp365
I0
aI0
aI1
aI0
aI0
aI0
aI0
aI0
aa(lp366
I0
aI0
aI1
aI0
aI0
aI0
aI0
aI0
aa(lp367
I0
aI0
aI1
aI0
aI0
aI0
aI0
aI0
aa(lp368
I0
aI0
aI0
aI1
aI0
aI0
aI0
aI0
aa(lp369
I0
aI0
aI0
aI0
aI1
aI0
aI0
aI0
aa(lp370
I0
aI0
aI0
aI0
aI0
aI0
aI0
aI0
aaa(lp371
(lp372
I0
aI0
aI1
aI0
aI0
aI0
aI0
aI0
aa(lp373
I0
aI0
aI0
aI1
aI0
aI0
aI0
aI0
aa(lp374
I0
aI0
aI0
aI0
aI1
aI0
aI0
aI0
aa(lp375
I0
aI0
aI0
aI0
aI1
aI0
aI0
aI0
aa(lp376
I0
aI0
aI0
aI0
aI1
aI0
aI0
aI0
aa(lp377
I0
aI0
aI0
aI1
aI0
aI0
aI0
aI0
aa(lp378
I0
aI0
aI1
aI0
aI0
aI0
aI0
aI0
aa(lp379
I0
aI0
aI0
aI0
aI0
aI0
aI0
aI0
aaa(lp380
(lp381
I0
aI1
aI0
aI0
aI0
aI1
aI0
aI0
aa(lp382
I0
aI0
aI1
aI0
aI1
aI0
aI0
aI0
aa(lp383
I1
aI1
aI0
aI1
aI0
aI1
aI1
aI0
aa(lp384
I0
aI0
aI1
aI0
aI1
aI0
aI0
aI0
aa(lp385
I0
aI1
aI0
aI0
aI0
aI1
aI0
aI0
aa(lp386
I0
aI0
aI0
aI0
aI0
aI0
aI0
aI0
aa(lp387
I0
aI0
aI0
aI0
aI0
aI0
aI0
aI0
aa(lp388
I0
aI0
aI0
aI0
aI0
aI0
aI0
aI0
aaa(lp389
(lp390
I0
aI0
aI0
aI0
aI0
aI0
aI0
aI0
aa(lp391
I0
aI0
aI0
aI1
aI0
aI0
aI0
aI0
aa(lp392
I0
aI0
aI0
aI1
aI0
aI0
aI0
aI0
aa(lp393
I1
aI1
aI0
aI1
aI0
aI1
aI1
aI0
aa(lp394
I0
aI0
aI0
aI1
aI0
aI0
aI0
aI0
aa(lp395
I0
aI0
aI0
aI1
aI0
aI0
aI0
aI0
aa(lp396
I0
aI0
aI0
aI0
aI0
aI0
aI0
aI0
aa(lp397
I0
aI0
aI0
aI0
aI0
aI0
aI0
aI0
aaa(lp398
(lp399
I0
aI0
aI0
aI0
aI0
aI0
aI0
aI0
aa(lp400
I0
aI0
aI0
aI0
aI0
aI0
aI0
aI0
aa(lp401
I0
aI0
aI0
aI0
aI0
aI0
aI0
aI0
aa(lp402
I0
aI0
aI0
aI0
aI0
aI0
aI0
aI0
aa(lp403
I0
aI0
aI1
aI0
aI1
aI0
aI0
aI0
aa(lp404
I0
aI0
aI1
aI0
aI1
aI0
aI0
aI0
aa(lp405
I0
aI0
aI0
aI0
aI1
aI0
aI0
aI0
aa(lp406
I0
aI0
aI0
aI1
aI0
aI0
aI0
aI0
aaa(lp407
(lp408
I0
aI0
aI0
aI0
aI0
aI0
aI0
aI0
aa(lp409
I0
aI0
aI0
aI0
aI0
aI0
aI0
aI0
aa(lp410
I0
aI0
aI0
aI0
aI0
aI0
aI0
aI0
aa(lp411
I1
aI0
aI1
aI0
aI1
aI0
aI1
aI0
aa(lp412
I0
aI0
aI0
aI0
aI0
aI0
aI0
aI0
aa(lp413
I0
aI0
aI0
aI0
aI0
aI0
aI0
aI0
aa(lp414
I0
aI0
aI0
aI0
aI0
aI0
aI0
aI0
aa(lp415
I0
aI0
aI0
aI0
aI0
aI0
aI0
aI0
aaa(lp416
(lp417
I0
aI0
aI0
aI0
aI0
aI0
aI0
aI0
aa(lp418
I0
aI0
aI0
aI0
aI0
aI0
aI0
aI0
aa(lp419
I0
aI0
aI0
aI0
aI0
aI0
aI0
aI0
aa(lp420
I0
aI0
aI0
aI0
aI0
aI0
aI0
aI0
aa(lp421
I0
aI0
aI0
aI0
aI0
aI0
aI0
aI0
aa(lp422
I0
aI0
aI1
aI0
aI1
aI0
aI0
aI0
aa(lp423
I0
aI0
aI1
aI0
aI1
aI0
aI0
aI0
aa(lp424
I0
aI0
aI0
aI0
aI0
aI0
aI0
aI0
aaa(lp425
(lp426
I0
aI0
aI0
aI0
aI0
aI0
aI1
aI0
aa(lp427
I0
aI0
aI0
aI0
aI0
aI1
aI0
aI0
aa(lp428
I0
aI0
aI0
aI0
aI1
aI0
aI0
aI0
aa(lp429
I0
aI0
aI0
aI1
aI0
aI0
aI0
aI0
aa(lp430
I0
aI0
aI1
aI0
aI0
aI0
aI0
aI0
aa(lp431
I0
aI1
aI0
aI0
aI0
aI0
aI0
aI0
aa(lp432
I1
aI0
aI0
aI0
aI0
aI0
aI0
aI0
aa(lp433
I0
aI0
aI0
aI0
aI0
aI0
aI0
aI0
aaa(lp434
(lp435
I0
aI0
aI1
aI0
aI1
aI0
aI0
aI0
aa(lp436
I0
aI1
aI0
aI0
aI0
aI1
aI0
aI0
aa(lp437
I1
aI0
aI0
aI0
aI0
aI0
aI1
aI0
aa(lp438
I1
aI0
aI0
aI0
aI0
aI0
aI1
aI0
aa(lp439
I1
aI0
aI0
aI0
aI0
aI0
aI1
aI0
aa(lp440
I0
aI1
aI0
aI0
aI0
aI1
aI0
aI0
aa(lp441
I0
aI0
aI1
aI0
aI1
aI0
aI0
aI0
aa(lp442
I0
aI0
aI0
aI0
aI0
aI0
aI0
aI0
aaa(lp443
(lp444
I0
aI0
aI0
aI1
aI0
aI0
aI0
aI0
aa(lp445
I0
aI1
aI0
aI1
aI0
aI0
aI0
aI0
aa(lp446
I0
aI0
aI0
aI1
aI0
aI0
aI0
aI0
aa(lp447
I0
aI0
aI0
aI1
aI0
aI0
aI0
aI0
aa(lp448
I0
aI0
aI0
aI1
aI0
aI0
aI0
aI0
aa(lp449
I0
aI0
aI0
aI1
aI0
aI0
aI0
aI0
aa(lp450
I0
aI1
aI0
aI1
aI0
aI1
aI0
aI0
aa(lp451
I0
aI0
aI0
aI0
aI0
aI0
aI0
aI0
aaa(lp452
(lp453
I0
aI1
aI0
aI1
aI0
aI1
aI0
aI0
aa(lp454
I1
aI0
aI0
aI0
aI0
aI0
aI1
aI0
aa(lp455
I0
aI0
aI0
aI0
aI0
aI0
aI1
aI0
aa(lp456
I0
aI0
aI0
aI0
aI0
aI1
aI0
aI0
aa(lp457
I0
aI0
aI0
aI1
aI0
aI0
aI0
aI0
aa(lp458
I0
aI1
aI0
aI0
aI0
aI0
aI0
aI0
aa(lp459
I1
aI0
aI1
aI0
aI1
aI0
aI1
aI0
aa(lp460
I0
aI0
aI0
aI0
aI0
aI0
aI0
aI0
aaa(lp461
(lp462
I1
aI0
aI1
aI0
aI1
aI0
aI1
aI0
aa(lp463
I0
aI0
aI0
aI0
aI0
aI1
aI0
aI0
aa(lp464
I0
aI0
aI0
aI0
aI1
aI0
aI0
aI0
aa(lp465
I0
aI0
aI0
aI1
aI0
aI1
aI0
aI0
aa(lp466
I0
aI0
aI0
aI0
aI0
aI0
aI1
aI0
aa(lp467
I1
aI0
aI0
aI0
aI0
aI0
aI1
aI0
aa(lp468
I0
aI1
aI0
aI1
aI0
aI1
aI0
aI0
aa(lp469
I0
aI0
aI0
aI0
aI0
aI0
aI0
aI0
aaa(lp470
(lp471
I0
aI0
aI0
aI0
aI1
aI0
aI0
aI0
aa(lp472
I0
aI0
aI0
aI1
aI0
aI0
aI0
aI0
aa(lp473
I0
aI0
aI1
aI0
aI0
aI1
aI0
aI0
aa(lp474
I0
aI1
aI0
aI0
aI0
aI1
aI0
aI0
aa(lp475
I1
aI0
aI1
aI0
aI1
aI1
aI0
aI1
aa(lp476
I0
aI0
aI0
aI0
aI0
aI1
aI0
aI0
aa(lp477
I0
aI0
aI0
aI0
aI0
aI1
aI0
aI0
aa(lp478
I0
aI0
aI0
aI0
aI0
aI0
aI0
aI0
aaa(lp479
(lp480
I1
aI0
aI1
aI0
aI1
aI0
aI1
aI0
aa(lp481
I1
aI0
aI0
aI0
aI0
aI0
aI0
aI0
aa(lp482
I1
aI1
aI0
aI1
aI0
aI1
aI0
aI0
aa(lp483
I0
aI0
aI0
aI0
aI0
aI0
aI1
aI0
aa(lp484
I0
aI0
aI0
aI0
aI0
aI0
aI1
aI0
aa(lp485
I1
aI0
aI0
aI0
aI0
aI0
aI1
aI0
aa(lp486
I0
aI1
aI0
aI1
aI0
aI1
aI0
aI0
aa(lp487
I0
aI0
aI0
aI0
aI0
aI0
aI0
aI0
aaa(lp488
(lp489
I0
aI0
aI0
aI0
aI1
aI0
aI0
aI0
aa(lp490
I0
aI0
aI0
aI1
aI0
aI0
aI0
aI0
aa(lp491
I0
aI0
aI1
aI0
aI0
aI0
aI0
aI0
aa(lp492
I0
aI1
aI0
aI1
aI0
aI1
aI0
aI0
aa(lp493
I1
aI0
aI0
aI0
aI0
aI0
aI1
aI0
aa(lp494
I1
aI0
aI0
aI0
aI0
aI0
aI1
aI0
aa(lp495
I0
aI1
aI0
aI1
aI0
aI1
aI0
aI0
aa(lp496
I0
aI0
aI0
aI0
aI0
aI0
aI0
aI0
aaa(lp497
(lp498
I1
aI0
aI1
aI0
aI1
aI0
aI1
aI1
aa(lp499
I0
aI0
aI0
aI0
aI0
aI0
aI1
aI0
aa(lp500
I0
aI0
aI0
aI0
aI0
aI1
aI0
aI0
aa(lp501
I0
aI0
aI0
aI0
aI1
aI0
aI0
aI0
aa(lp502
I0
aI0
aI0
aI1
aI0
aI0
aI0
aI0
aa(lp503
I0
aI0
aI1
aI0
aI0
aI0
aI0
aI0
aa(lp504
I0
aI1
aI0
aI0
aI0
aI0
aI0
aI0
aa(lp505
I0
aI0
aI0
aI0
aI0
aI0
aI0
aI0
aaa(lp506
(lp507
I0
aI1
aI0
aI1
aI0
aI1
aI0
aI0
aa(lp508
I1
aI0
aI0
aI0
aI0
aI0
aI1
aI0
aa(lp509
I1
aI0
aI0
aI0
aI0
aI0
aI1
aI0
aa(lp510
I0
aI1
aI0
aI1
aI0
aI1
aI0
aI0
aa(lp511
I1
aI0
aI0
aI0
aI0
aI0
aI1
aI0
aa(lp512
I1
aI0
aI0
aI0
aI0
aI0
aI1
aI0
aa(lp513
I0
aI1
aI0
aI1
aI0
aI1
aI0
aI0
aa(lp514
I0
aI0
aI0
aI0
aI0
aI0
aI0
aI0
aaa(lp515
(lp516
I0
aI1
aI0
aI1
aI0
aI1
aI0
aI0
aa(lp517
I1
aI0
aI0
aI0
aI0
aI0
aI1
aI0
aa(lp518
I1
aI0
aI0
aI0
aI0
aI0
aI1
aI0
aa(lp519
I0
aI1
aI0
aI1
aI0
aI1
aI0
aI0
aa(lp520
I0
aI0
aI0
aI0
aI1
aI0
aI0
aI0
aa(lp521
I0
aI0
aI0
aI1
aI0
aI0
aI0
aI0
aa(lp522
I0
aI0
aI1
aI0
aI0
aI0
aI0
aI0
aa(lp523
I0
aI0
aI0
aI0
aI0
aI0
aI0
aI0
aaa(lp524
(lp525
I0
aI0
aI0
aI0
aI0
aI0
aI0
aI0
aa(lp526
I0
aI0
aI1
aI0
aI1
aI0
aI0
aI0
aa(lp527
I0
aI0
aI1
aI0
aI1
aI0
aI0
aI0
aa(lp528
I0
aI0
aI0
aI0
aI0
aI0
aI0
aI0
aa(lp529
I0
aI0
aI1
aI0
aI1
aI0
aI0
aI0
aa(lp530
I0
aI0
aI1
aI0
aI1
aI0
aI0
aI0
aa(lp531
I0
aI0
aI0
aI0
aI0
aI0
aI0
aI0
aa(lp532
I0
aI0
aI0
aI0
aI0
aI0
aI0
aI0
aaa(lp533
(lp534
I0
aI0
aI0
aI0
aI0
aI0
aI0
aI0
aa(lp535
I0
aI0
aI1
aI0
aI1
aI0
aI0
aI0
aa(lp536
I0
aI0
aI1
aI0
aI1
aI0
aI0
aI0
aa(lp537
I0
aI0
aI0
aI0
aI0
aI0
aI0
aI0
aa(lp538
I0
aI0
aI1
aI0
aI1
aI0
aI0
aI0
aa(lp539
I0
aI0
aI1
aI0
aI1
aI0
aI0
aI0
aa(lp540
I0
aI0
aI0
aI0
aI1
aI0
aI0
aI0
aa(lp541
I0
aI0
aI0
aI1
aI0
aI0
aI0
aI0
aaa(lp542
(lp543
I0
aI0
aI0
aI0
aI0
aI0
aI1
aI0
aa(lp544
I0
aI0
aI0
aI0
aI1
aI0
aI0
aI0
aa(lp545
I0
aI0
aI1
aI0
aI0
aI0
aI0
aI0
aa(lp546
I1
aI0
aI0
aI0
aI0
aI0
aI0
aI0
aa(lp547
I0
aI0
aI1
aI0
aI0
aI0
aI0
aI0
aa(lp548
I0
aI0
aI0
aI0
aI1
aI0
aI0
aI0
aa(lp549
I0
aI0
aI0
aI0
aI0
aI0
aI1
aI0
aa(lp550
I0
aI0
aI0
aI0
aI0
aI0
aI0
aI0
aaa(lp551
(lp552
I0
aI0
aI0
aI0
aI0
aI0
aI0
aI0
aa(lp553
I0
aI0
aI0
aI0
aI0
aI0
aI0
aI0
aa(lp554
I1
aI0
aI1
aI0
aI1
aI0
aI1
aI0
aa(lp555
I0
aI0
aI0
aI0
aI0
aI0
aI0
aI0
aa(lp556
I1
aI0
aI1
aI0
aI1
aI0
aI1
aI0
aa(lp557
I0
aI0
aI0
aI0
aI0
aI0
aI0
aI0
aa(lp558
I0
aI0
aI0
aI0
aI0
aI0
aI0
aI0
aa(lp559
I0
aI0
aI0
aI0
aI0
aI0
aI0
aI0
aaa(lp560
(lp561
I1
aI0
aI0
aI0
aI0
aI0
aI0
aI0
aa(lp562
I0
aI0
aI1
aI0
aI0
aI0
aI0
aI0
aa(lp563
I0
aI0
aI0
aI0
aI1
aI0
aI0
aI0
aa(lp564
I0
aI0
aI0
aI0
aI0
aI0
aI1
aI0
aa(lp565
I0
aI0
aI0
aI0
aI1
aI0
aI0
aI0
aa(lp566
I0
aI0
aI1
aI0
aI0
aI0
aI0
aI0
aa(lp567
I1
aI0
aI0
aI0
aI0
aI0
aI0
aI0
aa(lp568
I0
aI0
aI0
aI0
aI0
aI0
aI0
aI0
aaa(lp569
(lp570
I0
aI1
aI0
aI1
aI0
aI1
aI0
aI0
aa(lp571
I1
aI0
aI0
aI0
aI0
aI0
aI1
aI0
aa(lp572
I0
aI0
aI0
aI0
aI0
aI0
aI1
aI0
aa(lp573
I0
aI0
aI0
aI0
aI1
aI1
aI0
aI0
aa(lp574
I0
aI0
aI0
aI1
aI0
aI0
aI0
aI0
aa(lp575
I0
aI0
aI0
aI0
aI0
aI0
aI0
aI0
aa(lp576
I0
aI0
aI0
aI1
aI0
aI0
aI0
aI0
aa(lp577
I0
aI0
aI0
aI0
aI0
aI0
aI0
aI0
aaa(lp578
(lp579
I0
aI0
aI1
aI0
aI1
aI0
aI1
aI0
aa(lp580
I0
aI1
aI0
aI0
aI0
aI0
aI0
aI1
aa(lp581
I1
aI0
aI0
aI0
aI1
aI0
aI1
aI1
aa(lp582
I1
aI0
aI0
aI1
aI0
aI0
aI0
aI1
aa(lp583
I1
aI0
aI0
aI1
aI0
aI1
aI0
aI1
aa(lp584
I1
aI0
aI0
aI0
aI0
aI0
aI0
aI0
aa(lp585
I0
aI1
aI0
aI1
aI0
aI1
aI0
aI1
aa(lp586
I0
aI0
aI0
aI0
aI0
aI0
aI0
aI0
aaa(lp587
(lp588
I0
aI0
aI0
aI1
aI0
aI0
aI0
aI0
aa(lp589
I0
aI0
aI1
aI0
aI1
aI0
aI0
aI0
aa(lp590
I0
aI1
aI0
aI0
aI0
aI1
aI0
aI0
aa(lp591
I1
aI0
aI0
aI0
aI0
aI0
aI1
aI0
aa(lp592
I1
aI0
aI1
aI0
aI1
aI0
aI1
aI0
aa(lp593
I1
aI0
aI0
aI0
aI0
aI0
aI1
aI0
aa(lp594
I1
aI0
aI0
aI0
aI0
aI0
aI1
aI0
aa(lp595
I0
aI0
aI0
aI0
aI0
aI0
aI0
aI0
aaa(lp596
(lp597
I1
aI0
aI1
aI0
aI1
aI0
aI1
aI0
aa(lp598
I0
aI1
aI0
aI0
aI0
aI0
aI0
aI1
aa(lp599
I0
aI1
aI0
aI0
aI0
aI0
aI0
aI1
aa(lp600
I0
aI1
aI1
aI0
aI1
aI0
aI1
aI0
aa(lp601
I0
aI1
aI0
aI0
aI0
aI0
aI0
aI1
aa(lp602
I0
aI1
aI0
aI0
aI0
aI0
aI0
aI1
aa(lp603
I1
aI0
aI1
aI0
aI1
aI0
aI1
aI0
aa(lp604
I0
aI0
aI0
aI0
aI0
aI0
aI0
aI0
aaa(lp605
(lp606
I0
aI1
aI0
aI1
aI0
aI1
aI0
aI0
aa(lp607
I1
aI0
aI0
aI0
aI0
aI0
aI1
aI0
aa(lp608
I1
aI0
aI0
aI0
aI0
aI0
aI0
aI0
aa(lp609
I1
aI0
aI0
aI0
aI0
aI0
aI0
aI0
aa(lp610
I1
aI0
aI0
aI0
aI0
aI0
aI0
aI0
aa(lp611
I1
aI0
aI0
aI0
aI0
aI0
aI1
aI0
aa(lp612
I0
aI1
aI0
aI1
aI0
aI1
aI0
aI0
aa(lp613
I0
aI0
aI0
aI0
aI0
aI0
aI0
aI0
aaa(lp614
(lp615
I1
aI0
aI1
aI0
aI1
aI0
aI0
aI0
aa(lp616
I1
aI0
aI0
aI0
aI0
aI1
aI0
aI0
aa(lp617
I1
aI0
aI0
aI0
aI0
aI0
aI1
aI0
aa(lp618
I1
aI0
aI0
aI0
aI0
aI0
aI1
aI0
aa(lp619
I1
aI0
aI0
aI0
aI0
aI0
aI1
aI0
aa(lp620
I1
aI0
aI0
aI0
aI0
aI1
aI0
aI0
aa(lp621
I1
aI0
aI1
aI0
aI1
aI0
aI0
aI0
aa(lp622
I0
aI0
aI0
aI0
aI0
aI0
aI0
aI0
aaa(lp623
(lp624
I1
aI0
aI1
aI0
aI1
aI0
aI1
aI0
aa(lp625
I1
aI0
aI0
aI0
aI0
aI0
aI0
aI0
aa(lp626
I1
aI0
aI0
aI0
aI0
aI0
aI0
aI0
aa(lp627
I1
aI0
aI1
aI0
aI1
aI0
aI0
aI0
aa(lp628
I1
aI0
aI0
aI0
aI0
aI0
aI0
aI0
aa(lp629
I1
aI0
aI0
aI0
aI0
aI0
aI0
aI0
aa(lp630
I1
aI0
aI1
aI0
aI1
aI0
aI1
aI0
aa(lp631
I0
aI0
aI0
aI0
aI0
aI0
aI0
aI0
aaa(lp632
(lp633
I1
aI0
aI1
aI0
aI1
aI0
aI1
aI0
aa(lp634
I1
aI0
aI0
aI0
aI0
aI0
aI0
aI0
aa(lp635
I1
aI0
aI0
aI0
aI0
aI0
aI0
aI0
aa(lp636
I1
aI0
aI1
aI0
aI1
aI0
aI0
aI0
aa(lp637
I1
aI0
aI0
aI0
aI0
aI0
aI0
aI0
aa(lp638
I1
aI0
aI0
aI0
aI0
aI0
aI0
aI0
aa(lp639
I1
aI0
aI0
aI0
aI0
aI0
aI0
aI0
aa(lp640
I0
aI0
aI0
aI0
aI0
aI0
aI0
aI0
aaa(lp641
(lp642
I0
aI1
aI0
aI1
aI0
aI1
aI0
aI0
aa(lp643
I1
aI0
aI0
aI0
aI0
aI0
aI1
aI0
aa(lp644
I1
aI0
aI0
aI0
aI0
aI0
aI0
aI0
aa(lp645
I1
aI0
aI0
aI0
aI0
aI0
aI0
aI0
aa(lp646
I1
aI0
aI0
aI0
aI1
aI0
aI1
aI0
aa(lp647
I1
aI0
aI0
aI0
aI0
aI0
aI1
aI0
aa(lp648
I0
aI1
aI0
aI1
aI0
aI1
aI0
aI0
aa(lp649
I0
aI0
aI0
aI0
aI0
aI0
aI0
aI0
aaa(lp650
(lp651
I1
aI0
aI0
aI0
aI0
aI0
aI1
aI0
aa(lp652
I1
aI0
aI0
aI0
aI0
aI0
aI1
aI0
aa(lp653
I1
aI0
aI0
aI0
aI0
aI0
aI1
aI0
aa(lp654
I1
aI0
aI1
aI0
aI1
aI0
aI1
aI0
aa(lp655
I1
aI0
aI0
aI0
aI0
aI0
aI1
aI0
aa(lp656
I1
aI0
aI0
aI0
aI0
aI0
aI1
aI0
aa(lp657
I1
aI0
aI0
aI0
aI0
aI0
aI1
aI0
aa(lp658
I0
aI0
aI0
aI0
aI0
aI0
aI0
aI0
aaa(lp659
(lp660
I0
aI1
aI0
aI1
aI0
aI1
aI0
aI0
aa(lp661
I0
aI0
aI0
aI1
aI0
aI0
aI0
aI0
aa(lp662
I0
aI0
aI0
aI1
aI0
aI0
aI0
aI0
aa(lp663
I0
aI0
aI0
aI1
aI0
aI0
aI0
aI0
aa(lp664
I0
aI0
aI0
aI1
aI0
aI0
aI0
aI0
aa(lp665
I0
aI0
aI0
aI1
aI0
aI0
aI0
aI0
aa(lp666
I0
aI1
aI0
aI1
aI0
aI1
aI0
aI0
aa(lp667
I0
aI0
aI0
aI0
aI0
aI0
aI0
aI0
aaa(lp668
(lp669
I0
aI0
aI1
aI0
aI1
aI0
aI1
aI0
aa(lp670
I0
aI0
aI0
aI0
aI1
aI0
aI0
aI0
aa(lp671
I0
aI0
aI0
aI0
aI1
aI0
aI0
aI0
aa(lp672
I0
aI0
aI0
aI0
aI1
aI0
aI0
aI0
aa(lp673
I0
aI0
aI0
aI0
aI1
aI0
aI0
aI0
aa(lp674
I1
aI0
aI0
aI0
aI1
aI0
aI0
aI0
aa(lp675
I0
aI1
aI0
aI1
aI0
aI0
aI0
aI0
aa(lp676
I0
aI0
aI0
aI0
aI0
aI0
aI0
aI0
aaa(lp677
(lp678
I1
aI0
aI0
aI0
aI0
aI0
aI1
aI0
aa(lp679
I1
aI0
aI0
aI0
aI0
aI1
aI0
aI0
aa(lp680
I1
aI0
aI0
aI0
aI1
aI0
aI0
aI0
aa(lp681
I1
aI0
aI1
aI1
aI0
aI0
aI0
aI0
aa(lp682
I1
aI0
aI0
aI0
aI1
aI0
aI0
aI0
aa(lp683
I1
aI0
aI0
aI0
aI0
aI1
aI0
aI0
aa(lp684
I1
aI0
aI0
aI0
aI0
aI0
aI1
aI0
aa(lp685
I0
aI0
aI0
aI0
aI0
aI0
aI0
aI0
aaa(lp686
(lp687
I1
aI0
aI0
aI0
aI0
aI0
aI0
aI0
aa(lp688
I1
aI0
aI0
aI0
aI0
aI0
aI0
aI0
aa(lp689
I1
aI0
aI0
aI0
aI0
aI0
aI0
aI0
aa(lp690
I1
aI0
aI0
aI0
aI0
aI0
aI0
aI0
aa(lp691
I1
aI0
aI0
aI0
aI0
aI0
aI0
aI0
aa(lp692
I1
aI0
aI0
aI0
aI0
aI0
aI0
aI0
aa(lp693
I1
aI0
aI1
aI0
aI1
aI0
aI1
aI0
aa(lp694
I0
aI0
aI0
aI0
aI0
aI0
aI0
aI0
aaa(lp695
(lp696
I1
aI0
aI0
aI0
aI0
aI0
aI1
aI0
aa(lp697
I1
aI1
aI0
aI0
aI0
aI1
aI1
aI0
aa(lp698
I1
aI0
aI1
aI0
aI1
aI0
aI1
aI0
aa(lp699
I1
aI0
aI0
aI1
aI0
aI0
aI1
aI0
aa(lp700
I1
aI0
aI0
aI0
aI0
aI0
aI1
aI0
aa(lp701
I1
aI0
aI0
aI0
aI0
aI0
aI1
aI0
aa(lp702
I1
aI0
aI0
aI0
aI0
aI0
aI1
aI0
aa(lp703
I0
aI0
aI0
aI0
aI0
aI0
aI0
aI0
aaa(lp704
(lp705
I1
aI0
aI0
aI0
aI0
aI0
aI1
aI0
aa(lp706
I1
aI1
aI0
aI0
aI0
aI0
aI1
aI0
aa(lp707
I1
aI0
aI1
aI0
aI0
aI0
aI1
aI0
aa(lp708
I1
aI0
aI0
aI1
aI0
aI0
aI1
aI0
aa(lp709
I1
aI0
aI0
aI0
aI1
aI0
aI1
aI0
aa(lp710
I1
aI0
aI0
aI0
aI0
aI1
aI1
aI0
aa(lp711
I1
aI0
aI0
aI0
aI0
aI0
aI1
aI0
aa(lp712
I0
aI0
aI0
aI0
aI0
aI0
aI0
aI0
aaa(lp713
(lp714
I0
aI1
aI0
aI1
aI0
aI1
aI0
aI0
aa(lp715
I1
aI0
aI0
aI0
aI0
aI0
aI1
aI0
aa(lp716
I1
aI0
aI0
aI0
aI0
aI0
aI1
aI0
aa(lp717
I1
aI0
aI0
aI0
aI0
aI0
aI1
aI0
aa(lp718
I1
aI0
aI0
aI0
aI0
aI0
aI1
aI0
aa(lp719
I1
aI0
aI0
aI0
aI0
aI0
aI1
aI0
aa(lp720
I0
aI1
aI0
aI1
aI0
aI1
aI0
aI0
aa(lp721
I0
aI0
aI0
aI0
aI0
aI0
aI0
aI0
aaa(lp722
(lp723
I1
aI1
aI0
aI1
aI0
aI1
aI0
aI0
aa(lp724
I1
aI0
aI0
aI0
aI0
aI0
aI1
aI0
aa(lp725
I1
aI0
aI0
aI0
aI0
aI0
aI1
aI0
aa(lp726
I1
aI1
aI0
aI1
aI0
aI1
aI0
aI0
aa(lp727
I1
aI0
aI0
aI0
aI0
aI0
aI0
aI0
aa(lp728
I1
aI0
aI0
aI0
aI0
aI0
aI0
aI0
aa(lp729
I1
aI0
aI0
aI0
aI0
aI0
aI0
aI0
aa(lp730
I0
aI0
aI0
aI0
aI0
aI0
aI0
aI0
aaa(lp731
(lp732
I0
aI1
aI0
aI1
aI0
aI1
aI0
aI0
aa(lp733
I1
aI0
aI0
aI0
aI0
aI0
aI1
aI0
aa(lp734
I1
aI0
aI0
aI0
aI0
aI0
aI1
aI0
aa(lp735
I1
aI0
aI0
aI0
aI0
aI0
aI1
aI0
aa(lp736
I1
aI0
aI0
aI0
aI1
aI0
aI1
aI0
aa(lp737
I1
aI0
aI0
aI0
aI0
aI1
aI0
aI0
aa(lp738
I0
aI1
aI0
aI1
aI1
aI0
aI1
aI0
aa(lp739
I0
aI0
aI0
aI0
aI0
aI0
aI0
aI0
aaa(lp740
(lp741
I1
aI1
aI0
aI1
aI0
aI1
aI0
aI0
aa(lp742
I1
aI0
aI0
aI0
aI0
aI0
aI1
aI0
aa(lp743
I1
aI0
aI0
aI0
aI0
aI0
aI1
aI0
aa(lp744
I1
aI1
aI0
aI1
aI0
aI1
aI0
aI0
aa(lp745
I1
aI0
aI0
aI0
aI1
aI0
aI0
aI0
aa(lp746
I1
aI0
aI0
aI0
aI0
aI1
aI0
aI0
aa(lp747
I1
aI0
aI0
aI0
aI0
aI0
aI1
aI0
aa(lp748
I0
aI0
aI0
aI0
aI0
aI0
aI0
aI0
aaa(lp749
(lp750
I0
aI1
aI0
aI1
aI0
aI1
aI0
aI0
aa(lp751
I1
aI0
aI0
aI0
aI0
aI0
aI1
aI0
aa(lp752
I1
aI0
aI0
aI0
aI0
aI0
aI0
aI0
aa(lp753
I0
aI1
aI0
aI1
aI0
aI1
aI0
aI0
aa(lp754
I0
aI0
aI0
aI0
aI0
aI0
aI1
aI0
aa(lp755
I1
aI0
aI0
aI0
aI0
aI0
aI1
aI0
aa(lp756
I0
aI1
aI0
aI1
aI0
aI1
aI0
aI0
aa(lp757
I0
aI0
aI0
aI0
aI0
aI0
aI0
aI0
aaa(lp758
(lp759
I1
aI0
aI1
aI0
aI1
aI0
aI1
aI0
aa(lp760
I0
aI0
aI0
aI1
aI0
aI0
aI0
aI0
aa(lp761
I0
aI0
aI0
aI1
aI0
aI0
aI0
aI0
aa(lp762
I0
aI0
aI0
aI1
aI0
aI0
aI0
aI0
aa(lp763
I0
aI0
aI0
aI1
aI0
aI0
aI0
aI0
aa(lp764
I0
aI0
aI0
aI1
aI0
aI0
aI0
aI0
aa(lp765
I0
aI0
aI0
aI1
aI0
aI0
aI0
aI0
aa(lp766
I0
aI0
aI0
aI0
aI0
aI0
aI0
aI0
aaa(lp767
(lp768
I1
aI0
aI0
aI0
aI0
aI0
aI1
aI0
aa(lp769
I1
aI0
aI0
aI0
aI0
aI0
aI1
aI0
aa(lp770
I1
aI0
aI0
aI0
aI0
aI0
aI1
aI0
aa(lp771
I1
aI0
aI0
aI0
aI0
aI0
aI1
aI0
aa(lp772
I1
aI0
aI0
aI0
aI0
aI0
aI1
aI0
aa(lp773
I1
aI0
aI0
aI0
aI0
aI0
aI1
aI0
aa(lp774
I0
aI1
aI0
aI1
aI0
aI1
aI0
aI0
aa(lp775
I0
aI0
aI0
aI0
aI0
aI0
aI0
aI0
aaa(lp776
(lp777
I1
aI0
aI0
aI0
aI0
aI0
aI1
aI0
aa(lp778
I1
aI0
aI0
aI0
aI0
aI0
aI1
aI0
aa(lp779
I1
aI0
aI0
aI0
aI0
aI0
aI1
aI0
aa(lp780
I1
aI0
aI0
aI0
aI0
aI0
aI1
aI0
aa(lp781
I0
aI1
aI0
aI0
aI0
aI1
aI0
aI0
aa(lp782
I0
aI0
aI1
aI0
aI1
aI0
aI0
aI0
aa(lp783
I0
aI0
aI0
aI1
aI0
aI0
aI0
aI0
aa(lp784
I0
aI0
aI0
aI0
aI0
aI0
aI0
aI0
aaa(lp785
(lp786
I1
aI0
aI0
aI0
aI0
aI0
aI1
aI0
aa(lp787
I1
aI0
aI0
aI0
aI0
aI0
aI1
aI0
aa(lp788
I1
aI0
aI0
aI0
aI0
aI0
aI1
aI0
aa(lp789
I1
aI0
aI0
aI1
aI0
aI0
aI1
aI0
aa(lp790
I1
aI0
aI1
aI0
aI1
aI0
aI1
aI0
aa(lp791
I1
aI1
aI0
aI0
aI0
aI1
aI1
aI0
aa(lp792
I1
aI0
aI0
aI0
aI0
aI0
aI1
aI0
aa(lp793
I0
aI0
aI0
aI0
aI0
aI0
aI0
aI0
aaa(lp794
(lp795
I1
aI0
aI0
aI0
aI0
aI0
aI1
aI0
aa(lp796
I0
aI1
aI0
aI0
aI0
aI1
aI0
aI0
aa(lp797
I0
aI0
aI1
aI0
aI1
aI0
aI0
aI0
aa(lp798
I0
aI0
aI0
aI1
aI0
aI0
aI0
aI0
aa(lp799
I0
aI0
aI1
aI0
aI1
aI0
aI0
aI0
aa(lp800
I0
aI1
aI0
aI0
aI0
aI1
aI0
aI0
aa(lp801
I1
aI0
aI0
aI0
aI0
aI0
aI1
aI0
aa(lp802
I0
aI0
aI0
aI0
aI0
aI0
aI0
aI0
aaa(lp803
(lp804
I1
aI0
aI0
aI0
aI0
aI0
aI1
aI0
aa(lp805
I0
aI1
aI0
aI0
aI0
aI1
aI0
aI0
aa(lp806
I0
aI0
aI1
aI0
aI1
aI0
aI0
aI0
aa(lp807
I0
aI0
aI0
aI1
aI0
aI0
aI0
aI0
aa(lp808
I0
aI0
aI0
aI1
aI0
aI0
aI0
aI0
aa(lp809
I0
aI0
aI0
aI1
aI0
aI0
aI0
aI0
aa(lp810
I0
aI0
aI0
aI1
aI0
aI0
aI0
aI0
aa(lp811
I0
aI0
aI0
aI0
aI0
aI0
aI0
aI0
aaa(lp812
(lp813
I1
aI0
aI1
aI0
aI1
aI0
aI1
aI0
aa(lp814
I0
aI0
aI0
aI0
aI0
aI1
aI0
aI0
aa(lp815
I0
aI0
aI0
aI0
aI1
aI0
aI0
aI0
aa(lp816
I0
aI0
aI0
aI1
aI0
aI0
aI0
aI0
aa(lp817
I0
aI0
aI1
aI0
aI0
aI0
aI0
aI0
aa(lp818
I0
aI1
aI0
aI0
aI0
aI0
aI0
aI0
aa(lp819
I1
aI0
aI1
aI0
aI1
aI0
aI1
aI0
aa(lp820
I0
aI0
aI0
aI0
aI0
aI0
aI0
aI0
aaa(lp821
(lp822
I0
aI0
aI1
aI0
aI1
aI0
aI0
aI0
aa(lp823
I0
aI0
aI1
aI0
aI0
aI0
aI0
aI0
aa(lp824
I0
aI0
aI1
aI0
aI0
aI0
aI0
aI0
aa(lp825
I0
aI0
aI1
aI0
aI0
aI0
aI0
aI0
aa(lp826
I0
aI0
aI1
aI0
aI0
aI0
aI0
aI0
aa(lp827
I0
aI0
aI1
aI0
aI0
aI0
aI0
aI0
aa(lp828
I0
aI0
aI1
aI0
aI1
aI0
aI0
aI0
aa(lp829
I0
aI0
aI0
aI0
aI0
aI0
aI0
aI0
aaa(lp830
(lp831
I1
aI0
aI0
aI0
aI0
aI0
aI0
aI0
aa(lp832
I0
aI1
aI0
aI0
aI0
aI0
aI0
aI0
aa(lp833
I0
aI0
aI1
aI0
aI0
aI0
aI0
aI0
aa(lp834
I0
aI0
aI0
aI1
aI0
aI0
aI0
aI0
aa(lp835
I0
aI0
aI0
aI0
aI1
aI0
aI0
aI0
aa(lp836
I0
aI0
aI0
aI0
aI0
aI1
aI0
aI0
aa(lp837
I0
aI0
aI0
aI0
aI0
aI0
aI1
aI0
aa(lp838
I0
aI0
aI0
aI0
aI0
aI0
aI0
aI0
aaa(lp839
(lp840
I0
aI0
aI1
aI0
aI1
aI0
aI0
aI0
aa(lp841
I0
aI0
aI0
aI0
aI1
aI0
aI0
aI0
aa(lp842
I0
aI0
aI0
aI0
aI1
aI0
aI0
aI0
aa(lp843
I0
aI0
aI0
aI0
aI1
aI0
aI0
aI0
aa(lp844
I0
aI0
aI0
aI0
aI1
aI0
aI0
aI0
aa(lp845
I0
aI0
aI0
aI0
aI1
aI0
aI0
aI0
aa(lp846
I0
aI0
aI1
aI0
aI1
aI0
aI0
aI0
aa(lp847
I0
aI0
aI0
aI0
aI0
aI0
aI0
aI0
aaa(lp848
(lp849
I0
aI0
aI0
aI1
aI0
aI0
aI0
aI0
aa(lp850
I0
aI0
aI1
aI0
aI1
aI0
aI0
aI0
aa(lp851
I0
aI1
aI0
aI0
aI0
aI1
aI0
aI0
aa(lp852
I1
aI0
aI0
aI0
aI0
aI0
aI1
aI0
aa(lp853
I0
aI0
aI0
aI0
aI0
aI0
aI0
aI0
aa(lp854
I0
aI0
aI0
aI0
aI0
aI0
aI0
aI0
aa(lp855
I0
aI0
aI0
aI0
aI0
aI0
aI0
aI0
aa(lp856
I0
aI0
aI0
aI0
aI0
aI0
aI0
aI0
aaa(lp857
(lp858
I0
aI0
aI0
aI0
aI0
aI0
aI0
aI0
aa(lp859
I0
aI0
aI0
aI0
aI0
aI0
aI0
aI0
aa(lp860
I0
aI0
aI0
aI0
aI0
aI0
aI0
aI0
aa(lp861
I0
aI0
aI0
aI0
aI0
aI0
aI0
aI0
aa(lp862
I0
aI0
aI0
aI0
aI0
aI0
aI0
aI0
aa(lp863
I0
aI0
aI0
aI0
aI0
aI0
aI0
aI0
aa(lp864
I0
aI0
aI0
aI0
aI0
aI0
aI0
aI0
aa(lp865
I1
aI0
aI1
aI0
aI1
aI0
aI1
aI0
aaa(lp866
(lp867
I0
aI0
aI0
aI1
aI0
aI0
aI0
aI0
aa(lp868
I0
aI0
aI0
aI0
aI1
aI0
aI0
aI0
aa(lp869
I0
aI0
aI0
aI0
aI0
aI1
aI0
aI0
aa(lp870
I0
aI0
aI0
aI0
aI0
aI0
aI0
aI0
aa(lp871
I0
aI0
aI0
aI0
aI0
aI0
aI0
aI0
aa(lp872
I0
aI0
aI0
aI0
aI0
aI0
aI0
aI0
aa(lp873
I0
aI0
aI0
aI0
aI0
aI0
aI0
aI0
aa(lp874
I0
aI0
aI0
aI0
aI0
aI0
aI0
aI0
aaa(lp875
(lp876
I0
aI0
aI0
aI0
aI0
aI0
aI0
aI0
aa(lp877
I0
aI0
aI0
aI0
aI0
aI0
aI0
aI0
aa(lp878
I0
aI1
aI0
aI1
aI0
aI1
aI0
aI0
aa(lp879
I0
aI0
aI0
aI0
aI0
aI0
aI1
aI0
aa(lp880
I0
aI1
aI0
aI1
aI0
aI1
aI1
aI0
aa(lp881
I1
aI0
aI0
aI0
aI0
aI0
aI1
aI0
aa(lp882
I0
aI1
aI0
aI1
aI0
aI1
aI0
aI1
aa(lp883
I0
aI0
aI0
aI0
aI0
aI0
aI0
aI0
aaa(lp884
(lp885
I0
aI1
aI0
aI0
aI0
aI0
aI0
aI0
aa(lp886
I0
aI1
aI0
aI0
aI0
aI0
aI0
aI0
aa(lp887
I0
aI1
aI0
aI1
aI0
aI1
aI0
aI0
aa(lp888
I0
aI1
aI0
aI0
aI0
aI0
aI1
aI0
aa(lp889
I0
aI1
aI0
aI0
aI0
aI0
aI1
aI0
aa(lp890
I0
aI1
aI0
aI0
aI0
aI0
aI1
aI0
aa(lp891
I0
aI1
aI0
aI1
aI0
aI1
aI0
aI0
aa(lp892
I0
aI0
aI0
aI0
aI0
aI0
aI0
aI0
aaa(lp893
(lp894
I0
aI0
aI0
aI0
aI0
aI0
aI0
aI0
aa(lp895
I0
aI0
aI0
aI0
aI0
aI0
aI0
aI0
aa(lp896
I0
aI0
aI1
aI0
aI1
aI0
aI1
aI0
aa(lp897
I0
aI1
aI0
aI0
aI0
aI0
aI0
aI0
aa(lp898
I0
aI1
aI0
aI0
aI0
aI0
aI0
aI0
aa(lp899
I0
aI1
aI0
aI0
aI0
aI0
aI0
aI0
aa(lp900
I0
aI0
aI1
aI0
aI1
aI0
aI1
aI0
aa(lp901
I0
aI0
aI0
aI0
aI0
aI0
aI0
aI0
aaa(lp902
(lp903
I0
aI0
aI0
aI0
aI0
aI0
aI1
aI0
aa(lp904
I0
aI0
aI0
aI0
aI0
aI0
aI1
aI0
aa(lp905
I0
aI0
aI1
aI0
aI1
aI0
aI1
aI0
aa(lp906
I0
aI1
aI0
aI0
aI0
aI0
aI1
aI0
aa(lp907
I0
aI1
aI0
aI0
aI0
aI0
aI1
aI0
aa(lp908
I0
aI1
aI0
aI0
aI0
aI0
aI1
aI0
aa(lp909
I0
aI0
aI1
aI0
aI1
aI0
aI1
aI0
aa(lp910
I0
aI0
aI0
aI0
aI0
aI0
aI0
aI0
aaa(lp911
(lp912
I0
aI0
aI0
aI0
aI0
aI0
aI0
aI0
aa(lp913
I0
aI0
aI0
aI0
aI0
aI0
aI0
aI0
aa(lp914
I0
aI1
aI0
aI1
aI0
aI1
aI0
aI0
aa(lp915
I1
aI0
aI0
aI0
aI0
aI0
aI1
aI0
aa(lp916
I1
aI0
aI1
aI0
aI1
aI0
aI1
aI0
aa(lp917
I1
aI0
aI0
aI0
aI0
aI0
aI0
aI0
aa(lp918
I0
aI1
aI0
aI1
aI0
aI1
aI0
aI0
aa(lp919
I0
aI0
aI0
aI0
aI0
aI0
aI0
aI0
aaa(lp920
(lp921
I0
aI0
aI0
aI0
aI1
aI0
aI1
aI0
aa(lp922
I0
aI0
aI0
aI1
aI0
aI0
aI0
aI0
aa(lp923
I0
aI0
aI0
aI1
aI0
aI0
aI0
aI0
aa(lp924
I0
aI1
aI0
aI1
aI0
aI1
aI0
aI0
aa(lp925
I0
aI0
aI0
aI1
aI0
aI0
aI0
aI0
aa(lp926
I0
aI0
aI0
aI1
aI0
aI0
aI0
aI0
aa(lp927
I0
aI0
aI0
aI1
aI0
aI0
aI0
aI0
aa(lp928
I0
aI0
aI0
aI0
aI0
aI0
aI0
aI0
aaa(lp929
(lp930
I0
aI0
aI0
aI0
aI0
aI0
aI0
aI0
aa(lp931
I0
aI0
aI0
aI0
aI0
aI0
aI0
aI0
aa(lp932
I0
aI0
aI1
aI0
aI1
aI0
aI1
aI0
aa(lp933
I0
aI1
aI0
aI0
aI0
aI0
aI1
aI0
aa(lp934
I0
aI1
aI0
aI0
aI0
aI0
aI1
aI0
aa(lp935
I0
aI0
aI1
aI0
aI1
aI0
aI1
aI0
aa(lp936
I0
aI0
aI0
aI0
aI0
aI0
aI1
aI0
aa(lp937
I0
aI0
aI0
aI1
aI0
aI1
aI0
aI0
aaa(lp938
(lp939
I0
aI1
aI0
aI0
aI0
aI0
aI0
aI0
aa(lp940
I0
aI1
aI0
aI0
aI0
aI0
aI0
aI0
aa(lp941
I0
aI1
aI0
aI1
aI0
aI1
aI0
aI0
aa(lp942
I0
aI1
aI0
aI0
aI0
aI0
aI1
aI0
aa(lp943
I0
aI1
aI0
aI0
aI0
aI0
aI1
aI0
aa(lp944
I0
aI1
aI0
aI0
aI0
aI0
aI1
aI0
aa(lp945
I0
aI1
aI0
aI0
aI0
aI0
aI1
aI0
aa(lp946
I0
aI0
aI0
aI0
aI0
aI0
aI0
aI0
aaa(lp947
(lp948
I0
aI0
aI0
aI1
aI0
aI0
aI0
aI0
aa(lp949
I0
aI0
aI0
aI0
aI0
aI0
aI0
aI0
aa(lp950
I0
aI0
aI0
aI1
aI0
aI0
aI0
aI0
aa(lp951
I0
aI1
aI0
aI1
aI0
aI0
aI0
aI0
aa(lp952
I0
aI0
aI0
aI1
aI0
aI0
aI0
aI0
aa(lp953
I0
aI0
aI0
aI1
aI0
aI0
aI0
aI0
aa(lp954
I0
aI1
aI0
aI1
aI0
aI1
aI0
aI0
aa(lp955
I0
aI0
aI0
aI0
aI0
aI0
aI0
aI0
aaa(lp956
(lp957
I0
aI0
aI0
aI0
aI0
aI1
aI0
aI0
aa(lp958
I0
aI0
aI0
aI0
aI0
aI0
aI0
aI0
aa(lp959
I0
aI0
aI0
aI0
aI0
aI1
aI0
aI0
aa(lp960
I0
aI0
aI0
aI1
aI0
aI1
aI0
aI0
aa(lp961
I0
aI0
aI0
aI0
aI0
aI1
aI0
aI0
aa(lp962
I0
aI0
aI0
aI0
aI0
aI1
aI0
aI0
aa(lp963
I0
aI1
aI0
aI0
aI0
aI1
aI0
aI0
aa(lp964
I0
aI0
aI1
aI0
aI1
aI0
aI0
aI0
aaa(lp965
(lp966
I0
aI1
aI0
aI0
aI0
aI0
aI0
aI0
aa(lp967
I0
aI1
aI0
aI0
aI0
aI0
aI0
aI0
aa(lp968
I0
aI1
aI0
aI0
aI0
aI0
aI1
aI0
aa(lp969
I0
aI1
aI0
aI0
aI0
aI1
aI0
aI0
aa(lp970
I0
aI1
aI0
aI1
aI1
aI0
aI0
aI0
aa(lp971
I0
aI1
aI0
aI0
aI0
aI1
aI0
aI0
aa(lp972
I0
aI1
aI0
aI0
aI0
aI0
aI1
aI0
aa(lp973
I0
aI0
aI0
aI0
aI0
aI0
aI0
aI0
aaa(lp974
(lp975
I0
aI1
aI0
aI1
aI0
aI0
aI0
aI0
aa(lp976
I0
aI0
aI0
aI1
aI0
aI0
aI0
aI0
aa(lp977
I0
aI0
aI0
aI1
aI0
aI0
aI0
aI0
aa(lp978
I0
aI0
aI0
aI1
aI0
aI0
aI0
aI0
aa(lp979
I0
aI0
aI0
aI1
aI0
aI0
aI0
aI0
aa(lp980
I0
aI0
aI0
aI1
aI0
aI0
aI0
aI0
aa(lp981
I0
aI1
aI0
aI1
aI0
aI1
aI0
aI0
aa(lp982
I0
aI0
aI0
aI0
aI0
aI0
aI0
aI0
aaa(lp983
(lp984
I0
aI0
aI0
aI0
aI0
aI0
aI0
aI0
aa(lp985
I0
aI0
aI0
aI0
aI0
aI0
aI0
aI0
aa(lp986
I1
aI0
aI1
aI0
aI1
aI0
aI1
aI0
aa(lp987
I0
aI1
aI0
aI0
aI1
aI0
aI0
aI1
aa(lp988
I0
aI1
aI0
aI0
aI1
aI0
aI0
aI1
aa(lp989
I0
aI1
aI0
aI0
aI1
aI0
aI0
aI1
aa(lp990
I0
aI1
aI0
aI0
aI1
aI0
aI0
aI1
aa(lp991
I0
aI0
aI0
aI0
aI0
aI0
aI0
aI0
aaa(lp992
(lp993
I0
aI0
aI0
aI0
aI0
aI0
aI0
aI0
aa(lp994
I0
aI0
aI0
aI0
aI0
aI0
aI0
aI0
aa(lp995
I1
aI1
aI0
aI1
aI0
aI1
aI0
aI0
aa(lp996
I0
aI1
aI0
aI0
aI0
aI0
aI1
aI0
aa(lp997
I0
aI1
aI0
aI0
aI0
aI0
aI1
aI0
aa(lp998
I0
aI1
aI0
aI0
aI0
aI0
aI1
aI0
aa(lp999
I0
aI1
aI0
aI0
aI0
aI0
aI1
aI0
aa(lp1000
I0
aI0
aI0
aI0
aI0
aI0
aI0
aI0
aaa(lp1001
(lp1002
I0
aI0
aI0
aI0
aI0
aI0
aI0
aI0
aa(lp1003
I0
aI0
aI0
aI0
aI0
aI0
aI0
aI0
aa(lp1004
I0
aI1
aI0
aI1
aI0
aI1
aI0
aI0
aa(lp1005
I1
aI0
aI0
aI0
aI0
aI0
aI1
aI0
aa(lp1006
I1
aI0
aI0
aI0
aI0
aI0
aI1
aI0
aa(lp1007
I1
aI0
aI0
aI0
aI0
aI0
aI1
aI0
aa(lp1008
I0
aI1
aI0
aI1
aI0
aI1
aI0
aI0
aa(lp1009
I0
aI0
aI0
aI0
aI0
aI0
aI0
aI0
aaa(lp1010
(lp1011
I0
aI0
aI0
aI0
aI0
aI0
aI0
aI0
aa(lp1012
I0
aI0
aI0
aI0
aI0
aI0
aI0
aI0
aa(lp1013
I0
aI1
aI0
aI1
aI0
aI1
aI0
aI0
aa(lp1014
I0
aI1
aI0
aI0
aI0
aI0
aI1
aI0
aa(lp1015
I0
aI1
aI0
aI0
aI0
aI0
aI1
aI0
aa(lp1016
I0
aI1
aI0
aI1
aI0
aI1
aI0
aI0
aa(lp1017
I0
aI1
aI0
aI0
aI0
aI0
aI0
aI0
aa(lp1018
I0
aI1
aI0
aI0
aI0
aI0
aI0
aI0
aaa(lp1019
(lp1020
I0
aI0
aI0
aI0
aI0
aI0
aI0
aI0
aa(lp1021
I0
aI0
aI0
aI0
aI0
aI0
aI0
aI0
aa(lp1022
I0
aI0
aI1
aI0
aI1
aI0
aI1
aI0
aa(lp1023
I0
aI1
aI0
aI0
aI0
aI0
aI1
aI0
aa(lp1024
I0
aI1
aI0
aI0
aI0
aI0
aI1
aI0
aa(lp1025
I0
aI0
aI1
aI0
aI1
aI0
aI1
aI0
aa(lp1026
I0
aI0
aI0
aI0
aI0
aI0
aI1
aI0
aa(lp1027
I0
aI0
aI0
aI0
aI0
aI0
aI1
aI0
aaa(lp1028
(lp1029
I0
aI0
aI0
aI0
aI0
aI0
aI0
aI0
aa(lp1030
I0
aI0
aI0
aI0
aI0
aI0
aI0
aI0
aa(lp1031
I0
aI1
aI0
aI1
aI0
aI1
aI0
aI0
aa(lp1032
I0
aI0
aI1
aI0
aI0
aI0
aI1
aI0
aa(lp1033
I0
aI0
aI1
aI0
aI0
aI0
aI0
aI0
aa(lp1034
I0
aI0
aI1
aI0
aI0
aI0
aI0
aI0
aa(lp1035
I0
aI0
aI1
aI0
aI0
aI0
aI0
aI0
aa(lp1036
I0
aI0
aI0
aI0
aI0
aI0
aI0
aI0
aaa(lp1037
(lp1038
I0
aI0
aI0
aI0
aI0
aI0
aI0
aI0
aa(lp1039
I0
aI0
aI0
aI0
aI0
aI0
aI0
aI0
aa(lp1040
I0
aI1
aI0
aI1
aI0
aI1
aI0
aI0
aa(lp1041
I1
aI0
aI0
aI0
aI0
aI0
aI0
aI0
aa(lp1042
I0
aI1
aI0
aI1
aI0
aI1
aI0
aI0
aa(lp1043
I0
aI0
aI0
aI0
aI0
aI0
aI1
aI0
aa(lp1044
I0
aI1
aI0
aI1
aI0
aI1
aI0
aI0
aa(lp1045
I0
aI0
aI0
aI0
aI0
aI0
aI0
aI0
aaa(lp1046
(lp1047
I0
aI0
aI0
aI1
aI0
aI0
aI0
aI0
aa(lp1048
I0
aI0
aI0
aI1
aI0
aI0
aI0
aI0
aa(lp1049
I0
aI1
aI0
aI1
aI0
aI1
aI0
aI0
aa(lp1050
I0
aI0
aI0
aI1
aI0
aI0
aI0
aI0
aa(lp1051
I0
aI0
aI0
aI1
aI0
aI0
aI0
aI0
aa(lp1052
I0
aI0
aI0
aI1
aI0
aI0
aI1
aI0
aa(lp1053
I0
aI0
aI0
aI0
aI1
aI1
aI0
aI0
aa(lp1054
I0
aI0
aI0
aI0
aI0
aI0
aI0
aI0
aaa(lp1055
(lp1056
I0
aI0
aI0
aI0
aI0
aI0
aI0
aI0
aa(lp1057
I0
aI0
aI0
aI0
aI0
aI0
aI0
aI0
aa(lp1058
I0
aI1
aI0
aI0
aI0
aI0
aI1
aI0
aa(lp1059
I0
aI1
aI0
aI0
aI0
aI0
aI1
aI0
aa(lp1060
I0
aI1
aI0
aI0
aI0
aI0
aI1
aI0
aa(lp1061
I0
aI1
aI0
aI0
aI0
aI0
aI1
aI0
aa(lp1062
I0
aI0
aI1
aI0
aI1
aI0
aI1
aI0
aa(lp1063
I0
aI0
aI0
aI0
aI0
aI0
aI0
aI0
aaa(lp1064
(lp1065
I0
aI0
aI0
aI0
aI0
aI0
aI0
aI0
aa(lp1066
I0
aI0
aI0
aI0
aI0
aI0
aI0
aI0
aa(lp1067
I1
aI0
aI0
aI0
aI0
aI0
aI1
aI0
aa(lp1068
I1
aI0
aI0
aI0
aI0
aI0
aI1
aI0
aa(lp1069
I0
aI1
aI0
aI0
aI0
aI1
aI0
aI0
aa(lp1070
I0
aI0
aI1
aI0
aI1
aI0
aI0
aI0
aa(lp1071
I0
aI0
aI0
aI1
aI0
aI0
aI0
aI0
aa(lp1072
I0
aI0
aI0
aI0
aI0
aI0
aI0
aI0
aaa(lp1073
(lp1074
I0
aI0
aI0
aI0
aI0
aI0
aI0
aI0
aa(lp1075
I0
aI0
aI0
aI0
aI0
aI0
aI0
aI0
aa(lp1076
I1
aI0
aI0
aI0
aI0
aI0
aI1
aI0
aa(lp1077
I1
aI0
aI0
aI1
aI0
aI0
aI1
aI0
aa(lp1078
I1
aI0
aI0
aI1
aI0
aI0
aI1
aI0
aa(lp1079
I1
aI0
aI1
aI0
aI1
aI0
aI1
aI0
aa(lp1080
I0
aI1
aI0
aI0
aI0
aI1
aI0
aI0
aa(lp1081
I0
aI0
aI0
aI0
aI0
aI0
aI0
aI0
aaa(lp1082
(lp1083
I0
aI0
aI0
aI0
aI0
aI0
aI0
aI0
aa(lp1084
I0
aI0
aI0
aI0
aI0
aI0
aI0
aI0
aa(lp1085
I0
aI1
aI0
aI0
aI0
aI1
aI0
aI0
aa(lp1086
I0
aI0
aI1
aI0
aI1
aI0
aI0
aI0
aa(lp1087
I0
aI0
aI0
aI1
aI0
aI0
aI0
aI0
aa(lp1088
I0
aI0
aI1
aI0
aI1
aI0
aI0
aI0
aa(lp1089
I0
aI1
aI0
aI0
aI0
aI1
aI0
aI0
aa(lp1090
I0
aI0
aI0
aI0
aI0
aI0
aI0
aI0
aaa(lp1091
(lp1092
I0
aI0
aI0
aI0
aI0
aI0
aI0
aI0
aa(lp1093
I0
aI0
aI0
aI0
aI0
aI0
aI0
aI0
aa(lp1094
I1
aI0
aI0
aI0
aI0
aI0
aI1
aI0
aa(lp1095
I0
aI1
aI0
aI0
aI0
aI1
aI0
aI0
aa(lp1096
I0
aI0
aI1
aI0
aI1
aI0
aI0
aI0
aa(lp1097
I0
aI0
aI0
aI1
aI0
aI0
aI0
aI0
aa(lp1098
I0
aI0
aI1
aI0
aI0
aI0
aI0
aI0
aa(lp1099
I0
aI1
aI0
aI0
aI0
aI0
aI0
aI0
aaa(lp1100
(lp1101
I0
aI0
aI0
aI0
aI0
aI0
aI0
aI0
aa(lp1102
I0
aI0
aI0
aI0
aI0
aI0
aI0
aI0
aa(lp1103
I0
aI1
aI0
aI1
aI0
aI1
aI0
aI0
aa(lp1104
I0
aI0
aI0
aI0
aI1
aI0
aI0
aI0
aa(lp1105
I0
aI0
aI0
aI1
aI0
aI0
aI0
aI0
aa(lp1106
I0
aI0
aI1
aI0
aI0
aI0
aI0
aI0
aa(lp1107
I0
aI1
aI0
aI1
aI0
aI1
aI0
aI0
aa(lp1108
I0
aI0
aI0
aI0
aI0
aI0
aI0
aI0
aaa(lp1109
(lp1110
I0
aI0
aI1
aI0
aI1
aI0
aI0
aI0
aa(lp1111
I0
aI1
aI0
aI0
aI0
aI0
aI0
aI0
aa(lp1112
I0
aI0
aI1
aI0
aI0
aI0
aI0
aI0
aa(lp1113
I1
aI0
aI1
aI0
aI0
aI0
aI0
aI0
aa(lp1114
I0
aI0
aI1
aI0
aI0
aI0
aI0
aI0
aa(lp1115
I0
aI1
aI0
aI0
aI0
aI0
aI0
aI0
aa(lp1116
I0
aI0
aI1
aI0
aI1
aI0
aI0
aI0
aa(lp1117
I0
aI0
aI0
aI0
aI0
aI0
aI0
aI0
aaa(lp1118
(lp1119
I0
aI0
aI0
aI1
aI0
aI0
aI0
aI0
aa(lp1120
I0
aI0
aI0
aI1
aI0
aI0
aI0
aI0
aa(lp1121
I0
aI0
aI0
aI1
aI0
aI0
aI0
aI0
aa(lp1122
I0
aI0
aI0
aI1
aI0
aI0
aI0
aI0
aa(lp1123
I0
aI0
aI0
aI1
aI0
aI0
aI0
aI0
aa(lp1124
I0
aI0
aI0
aI1
aI0
aI0
aI0
aI0
aa(lp1125
I0
aI0
aI0
aI1
aI0
aI0
aI0
aI0
aa(lp1126
I0
aI0
aI0
aI0
aI0
aI0
aI0
aI0
aaa(lp1127
(lp1128
I0
aI0
aI1
aI0
aI1
aI0
aI0
aI0
aa(lp1129
I0
aI0
aI0
aI0
aI0
aI1
aI0
aI0
aa(lp1130
I0
aI0
aI0
aI0
aI1
aI0
aI0
aI0
aa(lp1131
I0
aI0
aI0
aI0
aI1
aI0
aI1
aI0
aa(lp1132
I0
aI0
aI0
aI0
aI1
aI0
aI0
aI0
aa(lp1133
I0
aI0
aI0
aI0
aI0
aI1
aI0
aI0
aa(lp1134
I0
aI0
aI1
aI0
aI1
aI0
aI0
aI0
aa(lp1135
I0
aI0
aI0
aI0
aI0
aI0
aI0
aI0
aaa(lp1136
(lp1137
I0
aI1
aI1
aI0
aI0
aI0
aI0
aI1
aa(lp1138
I1
aI0
aI0
aI1
aI1
aI0
aI0
aI1
aa(lp1139
I1
aI0
aI0
aI0
aI0
aI1
aI1
aI0
aa(lp1140
I0
aI0
aI0
aI0
aI0
aI0
aI0
aI0
aa(lp1141
I0
aI0
aI0
aI0
aI0
aI0
aI0
aI0
aa(lp1142
I0
aI0
aI0
aI0
aI0
aI0
aI0
aI0
aa(lp1143
I0
aI0
aI0
aI0
aI0
aI0
aI0
aI0
aa(lp1144
I0
aI0
aI0
aI0
aI0
aI0
aI0
aI0
aaa(lp1145
(lp1146
I0
aI0
aI0
aI0
aI0
aI0
aI0
aI0
aa(lp1147
I0
aI0
aI1
aI0
aI1
aI0
aI1
aI0
aa(lp1148
I0
aI1
aI0
aI0
aI0
aI0
aI1
aI0
aa(lp1149
I1
aI0
aI0
aI0
aI0
aI0
aI1
aI0
aa(lp1150
I0
aI1
aI0
aI0
aI0
aI0
aI1
aI0
aa(lp1151
I0
aI0
aI1
aI0
aI1
aI0
aI1
aI0
aa(lp1152
I0
aI0
aI0
aI0
aI0
aI0
aI0
aI0
aa(lp1153
I0
aI0
aI0
aI0
aI0
aI0
aI0
aI0
aaa.